; Function Attrs: nounwind uwtable
define hidden void @zim_DOMNode___wakeup(ptr nocapture noundef readonly %0, ptr nocapture noundef readnone %1) local_unnamed_addr #0 {
  %3 = getelementptr inbounds i8, ptr %0, i64 32
  %4 = load ptr, ptr %3, align 8
  %5 = getelementptr inbounds i8, ptr %4, i64 16
  %6 = load ptr, ptr %5, align 8
  %7 = getelementptr inbounds i8, ptr %6, i64 8
  %8 = load ptr, ptr %7, align 8
  %9 = getelementptr inbounds i8, ptr %8, i64 24
  %10 = tail call ptr (ptr, i64, ptr, ...) @zend_throw_exception_ex(ptr noundef null, i64 noundef 0, ptr noundef nonnull @.str.24, ptr noundef nonnull %9) #12
  %11 = load ptr, ptr getelementptr inbounds (%struct._zend_executor_globals, ptr @executor_globals, i64 0, i32 50), align 8
  %12 = icmp ne ptr %11, null
  tail call void @llvm.assume(i1 %12)
  ret void
}